target datalayout = "e-m:e-p270:32:32-p271:32:32-p272:64:64-i64:64-i128:128-f80:128-n8:16:32:64-S128"
target triple = "x86_64-unknown-linux-gnu"

@.str.20 = private unnamed_addr constant [37 x i8] c"258EAFA5-E914-47DA-95CA-C5AB0DC85B11\00", align 1

; Function Attrs: mustprogress uwtable
define internal void @_ZL18compute_accept_keyPcPh(ptr noundef %key_, ptr noundef %hash_) #0 {
entry:
  %key_.addr = alloca ptr, align 8
  %hash_.addr = alloca ptr, align 8
  %magic_string = alloca ptr, align 8
  %hd = alloca ptr, align 8
  store ptr %key_, ptr %key_.addr, align 8
  store ptr %hash_, ptr %hash_.addr, align 8
  store ptr @.str.20, ptr %magic_string, align 8
  %call = call i32 @gnutls_hash_init(ptr noundef %hd, i32 noundef 3)
  %0 = load ptr, ptr %hd, align 8
  %1 = load ptr, ptr %key_.addr, align 8
  %2 = load ptr, ptr %key_.addr, align 8
  %call1 = call i64 @strlen(ptr noundef %2) #17
  %call2 = call i32 @gnutls_hash(ptr noundef %0, ptr noundef %1, i64 noundef %call1)
  %3 = load ptr, ptr %hd, align 8
  %4 = load ptr, ptr %magic_string, align 8
  %5 = load ptr, ptr %magic_string, align 8
  %call3 = call i64 @strlen(ptr noundef %5) #17
  %call4 = call i32 @gnutls_hash(ptr noundef %3, ptr noundef %4, i64 noundef %call3)
  %6 = load ptr, ptr %hd, align 8
  %7 = load ptr, ptr %hash_.addr, align 8
  call void @gnutls_hash_deinit(ptr noundef %6, ptr noundef %7)
  ret void
}