; Function Attrs: mustprogress uwtable
define internal fastcc void @_ZL18compute_accept_keyPcPh(ptr noundef %key_, ptr noundef %hash_) unnamed_addr #0 {
entry:
  %hd = alloca ptr, align 8
  %call = call i32 @gnutls_hash_init(ptr noundef nonnull %hd, i32 noundef 3)
  %0 = load ptr, ptr %hd, align 8
  %call1 = call i64 @strlen(ptr noundef nonnull dereferenceable(1) %key_) #24
  %call2 = call i32 @gnutls_hash(ptr noundef %0, ptr noundef %key_, i64 noundef %call1)
  %1 = load ptr, ptr %hd, align 8
  %call4 = call i32 @gnutls_hash(ptr noundef %1, ptr noundef nonnull @.str.20, i64 noundef 36)
  %2 = load ptr, ptr %hd, align 8
  call void @gnutls_hash_deinit(ptr noundef %2, ptr noundef %hash_)
  ret void
}